target datalayout = "e-m:e-p270:32:32-p271:32:32-p272:64:64-i64:64-i128:128-f80:128-n8:16:32:64-S128"
target triple = "x86_64-pc-linux-gnu"

%"struct.nanogui::Array.2" = type { [2 x i32] }
%"class.std::__1::shared_ptr" = type { ptr, ptr }
%"class.std::__1::basic_string" = type { %"class.std::__1::__compressed_pair.4" }
%"class.std::__1::__compressed_pair.4" = type { %"struct.std::__1::__compressed_pair_elem.5" }
%"struct.std::__1::__compressed_pair_elem.5" = type { %"struct.std::__1::basic_string<char>::__rep" }
%"struct.std::__1::basic_string<char>::__rep" = type { %union.anon }
%union.anon = type { %"struct.std::__1::basic_string<char>::__long" }
%"struct.std::__1::basic_string<char>::__long" = type { %struct.anon.6, i64, ptr }
%struct.anon.6 = type { i64 }
%"struct.tev::Box" = type { %"struct.nanogui::Array.2", %"struct.nanogui::Array.2" }
%"class.std::__1::promise" = type { ptr }
%class.anon.171 = type { %"class.std::__1::shared_ptr", %"class.std::__1::shared_ptr", %"class.std::__1::basic_string", i32, %"struct.tev::Box", i32, %"class.std::__1::promise" }
%"class.std::__1::__shared_count" = type { ptr, i64 }

; Function Attrs: mustprogress nounwind uwtable
define linkonce_odr hidden noundef i64 @_ZNSt3__134__libcpp_atomic_refcount_decrementB8ne190000IlEET_RS1_(ptr noundef nonnull align 8 dereferenceable(8) %0) #1 comdat {
  %2 = alloca ptr, align 8
  %3 = alloca i64, align 8
  %4 = alloca i64, align 8
  store ptr %0, ptr %2, align 8
  %5 = load ptr, ptr %2, align 8
  store i64 -1, ptr %3, align 8
  %6 = load i64, ptr %3, align 8
  %7 = atomicrmw add ptr %5, i64 %6 acq_rel, align 8
  %8 = add i64 %7, %6
  store i64 %8, ptr %4, align 8
  %9 = load i64, ptr %4, align 8
  ret i64 %9
}

; Function Attrs: mustprogress nounwind uwtable
define linkonce_odr hidden noundef zeroext i1 @_ZNSt3__114__shared_count16__release_sharedB8ne190000Ev(ptr noundef nonnull align 8 dereferenceable(16) %0) #1 comdat align 2 {
  %2 = alloca i1, align 1
  %3 = alloca ptr, align 8
  store ptr %0, ptr %3, align 8
  %4 = load ptr, ptr %3, align 8
  %5 = getelementptr inbounds %"class.std::__1::__shared_count", ptr %4, i32 0, i32 1
  %6 = call noundef i64 @_ZNSt3__134__libcpp_atomic_refcount_decrementB8ne190000IlEET_RS1_(ptr noundef nonnull align 8 dereferenceable(8) %5) #12
  %7 = icmp eq i64 %6, -1
  br i1 %7, label %8, label %12

8:                                                ; preds = %1
  %9 = load ptr, ptr %4, align 8
  %10 = getelementptr inbounds ptr, ptr %9, i64 2
  %11 = load ptr, ptr %10, align 8
  call void %11(ptr noundef nonnull align 8 dereferenceable(16) %4) #12
  store i1 true, ptr %2, align 1
  br label %13

12:                                               ; preds = %1
  store i1 false, ptr %2, align 1
  br label %13

13:                                               ; preds = %12, %8
  %14 = load i1, ptr %2, align 1
  ret i1 %14
}

; Function Attrs: mustprogress nounwind uwtable
define linkonce_odr hidden void @_ZNSt3__119__shared_weak_count16__release_sharedB8ne190000Ev(ptr noundef nonnull align 8 dereferenceable(24) %0) #1 comdat align 2 {
  %2 = alloca ptr, align 8
  store ptr %0, ptr %2, align 8
  %3 = load ptr, ptr %2, align 8
  %4 = call noundef zeroext i1 @_ZNSt3__114__shared_count16__release_sharedB8ne190000Ev(ptr noundef nonnull align 8 dereferenceable(16) %3) #12
  br i1 %4, label %5, label %6

5:                                                ; preds = %1
  call void @_ZNSt3__119__shared_weak_count14__release_weakEv(ptr noundef nonnull align 8 dereferenceable(24) %3) #12
  br label %6

6:                                                ; preds = %5, %1
  ret void
}

; Function Attrs: mustprogress nounwind uwtable
define linkonce_odr hidden void @_ZNSt3__110shared_ptrIN3tev5ImageEED2B8ne190000Ev(ptr noundef nonnull align 8 dereferenceable(16) %0) unnamed_addr #1 comdat align 2 {
  %2 = alloca ptr, align 8
  store ptr %0, ptr %2, align 8
  %3 = load ptr, ptr %2, align 8
  %4 = getelementptr inbounds %"class.std::__1::shared_ptr", ptr %3, i32 0, i32 1
  %5 = load ptr, ptr %4, align 8
  %6 = icmp ne ptr %5, null
  br i1 %6, label %7, label %10

7:                                                ; preds = %1
  %8 = getelementptr inbounds %"class.std::__1::shared_ptr", ptr %3, i32 0, i32 1
  %9 = load ptr, ptr %8, align 8
  call void @_ZNSt3__119__shared_weak_count16__release_sharedB8ne190000Ev(ptr noundef nonnull align 8 dereferenceable(24) %9) #12
  br label %10

10:                                               ; preds = %7, %1
  ret void
}

; Function Attrs: mustprogress nounwind uwtable
define internal void @"_ZZN3tev11ImageCanvas16canvasStatisticsEvEN3$_2D2Ev"(ptr noundef nonnull align 8 dereferenceable(88) %0) unnamed_addr #1 align 2 {
  %2 = alloca ptr, align 8
  store ptr %0, ptr %2, align 8
  %3 = load ptr, ptr %2, align 8
  %4 = getelementptr inbounds %class.anon.171, ptr %3, i32 0, i32 6
  call void @_ZNSt3__17promiseINS_10shared_ptrIN3tev16CanvasStatisticsEEEED2Ev(ptr noundef nonnull align 8 dereferenceable(8) %4) #12
  %5 = getelementptr inbounds %class.anon.171, ptr %3, i32 0, i32 2
  call void @_ZNSt3__112basic_stringIcNS_11char_traitsIcEENS_9allocatorIcEEED1Ev(ptr noundef nonnull align 8 dereferenceable(24) %5) #12
  %6 = getelementptr inbounds %class.anon.171, ptr %3, i32 0, i32 1
  call void @_ZNSt3__110shared_ptrIN3tev5ImageEED2B8ne190000Ev(ptr noundef nonnull align 8 dereferenceable(16) %6) #12
  %7 = getelementptr inbounds %class.anon.171, ptr %3, i32 0, i32 0
  call void @_ZNSt3__110shared_ptrIN3tev5ImageEED2B8ne190000Ev(ptr noundef nonnull align 8 dereferenceable(16) %7) #12
  ret void
}