; Function Attrs: mustprogress nounwind uwtable
define internal fastcc void @"_ZZN3tev11ImageCanvas16canvasStatisticsEvEN3$_2D2Ev"(ptr noundef nonnull align 8 dereferenceable(88) %0) unnamed_addr #1 align 2 {
  %2 = getelementptr inbounds i8, ptr %0, i64 80
  tail call void @_ZNSt3__17promiseINS_10shared_ptrIN3tev16CanvasStatisticsEEEED2Ev(ptr noundef nonnull align 8 dereferenceable(8) %2) #33
  %3 = getelementptr inbounds i8, ptr %0, i64 32
  tail call void @_ZNSt3__112basic_stringIcNS_11char_traitsIcEENS_9allocatorIcEEED1Ev(ptr noundef nonnull align 8 dereferenceable(24) %3) #33
  %4 = getelementptr inbounds i8, ptr %0, i64 24
  %5 = load ptr, ptr %4, align 8
  %.not.i = icmp eq ptr %5, null
  br i1 %.not.i, label %_ZNSt3__110shared_ptrIN3tev5ImageEED2B8ne190000Ev.exit, label %6

6:                                                ; preds = %1
  %7 = getelementptr inbounds i8, ptr %5, i64 8
  %8 = atomicrmw add ptr %7, i64 -1 acq_rel, align 8
  %9 = icmp eq i64 %8, 0
  br i1 %9, label %10, label %_ZNSt3__110shared_ptrIN3tev5ImageEED2B8ne190000Ev.exit

10:                                               ; preds = %6
  %11 = load ptr, ptr %5, align 8
  %12 = getelementptr inbounds i8, ptr %11, i64 16
  %13 = load ptr, ptr %12, align 8
  tail call void %13(ptr noundef nonnull align 8 dereferenceable(16) %5) #33
  tail call void @_ZNSt3__119__shared_weak_count14__release_weakEv(ptr noundef nonnull align 8 dereferenceable(24) %5) #33
  br label %_ZNSt3__110shared_ptrIN3tev5ImageEED2B8ne190000Ev.exit

_ZNSt3__110shared_ptrIN3tev5ImageEED2B8ne190000Ev.exit: ; preds = %1, %6, %10
  %14 = getelementptr inbounds i8, ptr %0, i64 8
  %15 = load ptr, ptr %14, align 8
  %.not.i1 = icmp eq ptr %15, null
  br i1 %.not.i1, label %_ZNSt3__110shared_ptrIN3tev5ImageEED2B8ne190000Ev.exit2, label %16

16:                                               ; preds = %_ZNSt3__110shared_ptrIN3tev5ImageEED2B8ne190000Ev.exit
  %17 = getelementptr inbounds i8, ptr %15, i64 8
  %18 = atomicrmw add ptr %17, i64 -1 acq_rel, align 8
  %19 = icmp eq i64 %18, 0
  br i1 %19, label %20, label %_ZNSt3__110shared_ptrIN3tev5ImageEED2B8ne190000Ev.exit2

20:                                               ; preds = %16
  %21 = load ptr, ptr %15, align 8
  %22 = getelementptr inbounds i8, ptr %21, i64 16
  %23 = load ptr, ptr %22, align 8
  tail call void %23(ptr noundef nonnull align 8 dereferenceable(16) %15) #33
  tail call void @_ZNSt3__119__shared_weak_count14__release_weakEv(ptr noundef nonnull align 8 dereferenceable(24) %15) #33
  br label %_ZNSt3__110shared_ptrIN3tev5ImageEED2B8ne190000Ev.exit2

_ZNSt3__110shared_ptrIN3tev5ImageEED2B8ne190000Ev.exit2: ; preds = %_ZNSt3__110shared_ptrIN3tev5ImageEED2B8ne190000Ev.exit, %16, %20
  ret void
}